///////////////////////////////////////////////////////////////////////////////
//                                                                            /
// IAR C/C++ Compiler V8.10.3.10338/W32 for 8051        01/Sep/2017  16:24:05 /
// Copyright 2004-2011 IAR Systems AB.                                        /
//                                                                            /
//    Core               =  plain                                             /
//    Code model         =  banked                                            /
//    Data model         =  large                                             /
//    Calling convention =  xdata reentrant                                   /
//    Constant location  =  data_rom                                          /
//    Dptr setup         =  1,16                                              /
//    Source file        =  E:\PM2.5\Components\hal\target\CC2530EB\hal_lcd.c /
//    Command line       =  -f E:\PM2.5\Projects\zstack\Samples\GenericApp\CC /
//                          2530DB\..\..\..\Tools\CC2530DB\f8wEndev.cfg       /
//                          (-DCPU32MHZ -DROOT=__near_func -DBLINK_LEDS) -f   /
//                          E:\PM2.5\Projects\zstack\Samples\GenericApp\CC253 /
//                          0DB\..\..\..\Tools\CC2530DB\f8wConfig.cfg         /
//                          (-DSECURE=0 -DZG_SECURE_DYNAMIC=0 -DREFLECTOR     /
//                          -DDEFAULT_CHANLIST=0x00000800                     /
//                          -DZDAPP_CONFIG_PAN_ID=0xFFFF                      /
//                          -DNWK_START_DELAY=100 -DEXTENDED_JOINING_RANDOM_M /
//                          ASK=0x007F -DBEACON_REQUEST_DELAY=100             /
//                          -DBEACON_REQ_DELAY_MASK=0x00FF                    /
//                          -DROUTE_EXPIRY_TIME=30 -DAPSC_ACK_WAIT_DURATION_P /
//                          OLLED=3000 -DNWK_INDIRECT_MSG_TIMEOUT=7           /
//                          -DMAX_RREQ_ENTRIES=8 -DAPSC_MAX_FRAME_RETRIES=3   /
//                          -DNWK_MAX_DATA_RETRIES=2                          /
//                          -DMAX_POLL_FAILURE_RETRIES=2 -DMAX_BCAST=9        /
//                          -DAPS_MAX_GROUPS=16 -DMAX_RTG_ENTRIES=40          /
//                          -DNWK_MAX_BINDING_ENTRIES=4                       /
//                          -DMAX_BINDING_CLUSTER_IDS=4                       /
//                          "-DDEFAULT_KEY={0x01, 0x03, 0x05, 0x07, 0x09,     /
//                          0x0B, 0x0D, 0x0F, 0x00, 0x02, 0x04, 0x06, 0x08,   /
//                          0x0A, 0x0C, 0x0D}" -DMAC_MAX_FRAME_SIZE=116       /
//                          "-DCONST=const __code" -DGENERIC=__generic        /
//                          -DRFD_RCVC_ALWAYS_ON=FALSE -DPOLL_RATE=1000       /
//                          -DQUEUED_POLL_RATE=100 -DRESPONSE_POLL_RATE=100)  /
//                          -DREJOIN_POLL_RATE=440 E:\PM2.5\Components\hal\ta /
//                          rget\CC2530EB\hal_lcd.c -D ZIGBEEPRO -D           /
//                          NWK_AUTO_POLL -D ZTOOL_P1 -D xMT_TASK -D          /
//                          MT_SYS_FUNC -D MT_ZDO_FUNC -D xPOWER_SAVING -lC   /
//                          E:\PM2.5\Projects\zstack\Samples\GenericApp\CC253 /
//                          0DB\EndDeviceEB-Pro\List\ -lA                     /
//                          E:\PM2.5\Projects\zstack\Samples\GenericApp\CC253 /
//                          0DB\EndDeviceEB-Pro\List\ --diag_suppress         /
//                          Pe001,Pa010 -o E:\PM2.5\Projects\zstack\Samples\G /
//                          enericApp\CC2530DB\EndDeviceEB-Pro\Obj\ -e        /
//                          --debug --core=plain --dptr=16,1                  /
//                          --data_model=large --code_model=banked            /
//                          --calling_convention=xdata_reentrant              /
//                          --place_constants=data_rom --nr_virtual_regs 16   /
//                          -I E:\PM2.5\Projects\zstack\Samples\GenericApp\CC /
//                          2530DB\ -I E:\PM2.5\Projects\zstack\Samples\Gener /
//                          icApp\CC2530DB\..\SOURCE\ -I                      /
//                          E:\PM2.5\Projects\zstack\Samples\GenericApp\CC253 /
//                          0DB\..\..\..\ZMAIN\TI2530DB\ -I                   /
//                          E:\PM2.5\Projects\zstack\Samples\GenericApp\CC253 /
//                          0DB\..\..\..\..\..\COMPONENTS\MT\ -I              /
//                          E:\PM2.5\Projects\zstack\Samples\GenericApp\CC253 /
//                          0DB\..\..\..\..\..\COMPONENTS\HAL\INCLUDE\ -I     /
//                          E:\PM2.5\Projects\zstack\Samples\GenericApp\CC253 /
//                          0DB\..\..\..\..\..\COMPONENTS\HAL\TARGET\CC2530EB /
//                          \ -I E:\PM2.5\Projects\zstack\Samples\GenericApp\ /
//                          CC2530DB\..\..\..\..\..\COMPONENTS\OSAL\MCU\CCSOC /
//                          \ -I E:\PM2.5\Projects\zstack\Samples\GenericApp\ /
//                          CC2530DB\..\..\..\..\..\COMPONENTS\OSAL\INCLUDE\  /
//                          -I E:\PM2.5\Projects\zstack\Samples\GenericApp\CC /
//                          2530DB\..\..\..\..\..\COMPONENTS\STACK\AF\ -I     /
//                          E:\PM2.5\Projects\zstack\Samples\GenericApp\CC253 /
//                          0DB\..\..\..\..\..\COMPONENTS\STACK\NWK\ -I       /
//                          E:\PM2.5\Projects\zstack\Samples\GenericApp\CC253 /
//                          0DB\..\..\..\..\..\COMPONENTS\STACK\SEC\ -I       /
//                          E:\PM2.5\Projects\zstack\Samples\GenericApp\CC253 /
//                          0DB\..\..\..\..\..\COMPONENTS\STACK\SAPI\ -I      /
//                          E:\PM2.5\Projects\zstack\Samples\GenericApp\CC253 /
//                          0DB\..\..\..\..\..\COMPONENTS\STACK\SYS\ -I       /
//                          E:\PM2.5\Projects\zstack\Samples\GenericApp\CC253 /
//                          0DB\..\..\..\..\..\COMPONENTS\STACK\ZDO\ -I       /
//                          E:\PM2.5\Projects\zstack\Samples\GenericApp\CC253 /
//                          0DB\..\..\..\..\..\COMPONENTS\ZMAC\F8W\ -I        /
//                          E:\PM2.5\Projects\zstack\Samples\GenericApp\CC253 /
//                          0DB\..\..\..\..\..\COMPONENTS\ZMAC\ -I            /
//                          E:\PM2.5\Projects\zstack\Samples\GenericApp\CC253 /
//                          0DB\..\..\..\..\..\COMPONENTS\SERVICES\SADDR\ -I  /
//                          E:\PM2.5\Projects\zstack\Samples\GenericApp\CC253 /
//                          0DB\..\..\..\..\..\COMPONENTS\SERVICES\SDATA\ -I  /
//                          E:\PM2.5\Projects\zstack\Samples\GenericApp\CC253 /
//                          0DB\..\..\..\..\..\COMPONENTS\MAC\INCLUDE\ -I     /
//                          E:\PM2.5\Projects\zstack\Samples\GenericApp\CC253 /
//                          0DB\..\..\..\..\..\COMPONENTS\MAC\HIGH_LEVEL\ -I  /
//                          E:\PM2.5\Projects\zstack\Samples\GenericApp\CC253 /
//                          0DB\..\..\..\..\..\COMPONENTS\MAC\LOW_LEVEL\srf04 /
//                          \ -I E:\PM2.5\Projects\zstack\Samples\GenericApp\ /
//                          CC2530DB\..\..\..\..\..\COMPONENTS\MAC\LOW_LEVEL\ /
//                          srf04\SINGLE_CHIP\ -Ohz                           /
//    List file          =  E:\PM2.5\Projects\zstack\Samples\GenericApp\CC253 /
//                          0DB\EndDeviceEB-Pro\List\hal_lcd.s51              /
//                                                                            /
//                                                                            /
///////////////////////////////////////////////////////////////////////////////

        NAME hal_lcd

        RTMODEL "__SystemLibrary", "CLib"
        RTMODEL "__calling_convention", "xdata_reentrant"
        RTMODEL "__code_model", "banked"
        RTMODEL "__core", "plain"
        RTMODEL "__data_model", "large"
        RTMODEL "__dptr_size", "16"
        RTMODEL "__extended_stack", "disabled"
        RTMODEL "__location_for_constants", "data"
        RTMODEL "__number_of_dptrs", "1"
        RTMODEL "__rt_version", "1"

        RSEG DOVERLAY:DATA:NOROOT(0)
        RSEG IOVERLAY:IDATA:NOROOT(0)
        RSEG ISTACK:IDATA:NOROOT(0)
        RSEG PSTACK:XDATA:NOROOT(0)
        RSEG XSTACK:XDATA:NOROOT(0)

        EXTERN ?BDISPATCH
        EXTERN ?BRET
        EXTERN __INIT_XDATA_I

        PUBLIC ??HalLcdInit?relay
        FUNCTION ??HalLcdInit?relay,0203H
        PUBLIC ??HalLcdWriteScreen?relay
        FUNCTION ??HalLcdWriteScreen?relay,0203H
        PUBLIC ??HalLcdWriteStringValue?relay
        FUNCTION ??HalLcdWriteStringValue?relay,0203H
        PUBLIC ??HalLcdWriteStringValueValue?relay
        FUNCTION ??HalLcdWriteStringValueValue?relay,0203H
        PUBLIC ??HalLcdWriteValue?relay
        FUNCTION ??HalLcdWriteValue?relay,0203H
        PUBLIC F16x16
        PUBLIC F8X16
        PUBLIC HalLcdInit
        FUNCTION HalLcdInit,0203H
        ARGFRAME XSTACK, 0, STACK
        PUBLIC HalLcdWriteScreen
        FUNCTION HalLcdWriteScreen,0203H
        ARGFRAME XSTACK, 0, STACK
        PUBLIC HalLcdWriteStringValue
        FUNCTION HalLcdWriteStringValue,0203H
        ARGFRAME XSTACK, 1, STACK
        PUBLIC HalLcdWriteStringValueValue
        FUNCTION HalLcdWriteStringValueValue,0203H
        ARGFRAME XSTACK, 4, STACK
        PUBLIC HalLcdWriteValue
        FUNCTION HalLcdWriteValue,0203H
        ARGFRAME XSTACK, 1, STACK
        
        CFI Names cfiNames0
        CFI StackFrame CFA_SP SP IDATA
        CFI StackFrame CFA_PSP16 PSP16 XDATA
        CFI StackFrame CFA_XSP16 XSP16 XDATA
        CFI StaticOverlayFrame CFA_IOVERLAY IOVERLAY
        CFI StaticOverlayFrame CFA_DOVERLAY DOVERLAY
        CFI Resource `PSW.CY`:1, `B.BR0`:1, `B.BR1`:1, `B.BR2`:1, `B.BR3`:1
        CFI Resource `B.BR4`:1, `B.BR5`:1, `B.BR6`:1, `B.BR7`:1, `VB.BR8`:1
        CFI Resource `VB.BR9`:1, `VB.BR10`:1, `VB.BR11`:1, `VB.BR12`:1
        CFI Resource `VB.BR13`:1, `VB.BR14`:1, `VB.BR15`:1, VB:8, B:8, A:8
        CFI Resource PSW:8, DPL0:8, DPH0:8, R0:8, R1:8, R2:8, R3:8, R4:8, R5:8
        CFI Resource R6:8, R7:8, V0:8, V1:8, V2:8, V3:8, V4:8, V5:8, V6:8, V7:8
        CFI Resource V8:8, V9:8, V10:8, V11:8, V12:8, V13:8, V14:8, V15:8, SP:8
        CFI Resource PSPH:8, PSPL:8, PSP16:16, XSPH:8, XSPL:8, XSP16:16
        CFI VirtualResource ?RET:24
        CFI Resource ?BRET_EXT:8
        CFI VirtualResource ?RET_HIGH:8, ?RET_LOW:8
        CFI ResourceParts PSP16 PSPH, PSPL
        CFI ResourceParts XSP16 XSPH, XSPL
        CFI ResourceParts ?RET ?BRET_EXT, ?RET_HIGH, ?RET_LOW
        CFI EndNames cfiNames0
        
        CFI Common cfiCommon0 Using cfiNames0
        CFI CodeAlign 1
        CFI DataAlign -1
        CFI ReturnAddress ?RET CODE
        CFI CFA_DOVERLAY Used
        CFI CFA_IOVERLAY Used
        CFI CFA_SP SP+-3
        CFI CFA_PSP16 PSP16+0
        CFI CFA_XSP16 XSP16+0
        CFI `PSW.CY` SameValue
        CFI `B.BR0` SameValue
        CFI `B.BR1` SameValue
        CFI `B.BR2` SameValue
        CFI `B.BR3` SameValue
        CFI `B.BR4` SameValue
        CFI `B.BR5` SameValue
        CFI `B.BR6` SameValue
        CFI `B.BR7` SameValue
        CFI `VB.BR8` SameValue
        CFI `VB.BR9` SameValue
        CFI `VB.BR10` SameValue
        CFI `VB.BR11` SameValue
        CFI `VB.BR12` SameValue
        CFI `VB.BR13` SameValue
        CFI `VB.BR14` SameValue
        CFI `VB.BR15` SameValue
        CFI VB SameValue
        CFI B Undefined
        CFI A Undefined
        CFI PSW SameValue
        CFI DPL0 SameValue
        CFI DPH0 SameValue
        CFI R0 Undefined
        CFI R1 Undefined
        CFI R2 Undefined
        CFI R3 Undefined
        CFI R4 Undefined
        CFI R5 Undefined
        CFI R6 SameValue
        CFI R7 SameValue
        CFI V0 SameValue
        CFI V1 SameValue
        CFI V2 SameValue
        CFI V3 SameValue
        CFI V4 SameValue
        CFI V5 SameValue
        CFI V6 SameValue
        CFI V7 SameValue
        CFI V8 SameValue
        CFI V9 SameValue
        CFI V10 SameValue
        CFI V11 SameValue
        CFI V12 SameValue
        CFI V13 SameValue
        CFI V14 SameValue
        CFI V15 SameValue
        CFI PSPH Undefined
        CFI PSPL Undefined
        CFI XSPH Undefined
        CFI XSPL Undefined
        CFI ?RET Concat
        CFI ?BRET_EXT Frame(CFA_SP, 3)
        CFI ?RET_HIGH Frame(CFA_SP, 2)
        CFI ?RET_LOW Frame(CFA_SP, 1)
        CFI EndCommon cfiCommon0
        
HalLcdInit          SYMBOL "HalLcdInit"
??HalLcdInit?relay  SYMBOL "?relay", HalLcdInit
HalLcdWriteScreen   SYMBOL "HalLcdWriteScreen"
??HalLcdWriteScreen?relay SYMBOL "?relay", HalLcdWriteScreen
HalLcdWriteStringValue SYMBOL "HalLcdWriteStringValue"
??HalLcdWriteStringValue?relay SYMBOL "?relay", HalLcdWriteStringValue
HalLcdWriteStringValueValue SYMBOL "HalLcdWriteStringValueValue"
??HalLcdWriteStringValueValue?relay SYMBOL "?relay", HalLcdWriteStringValueValue
HalLcdWriteValue    SYMBOL "HalLcdWriteValue"
??HalLcdWriteValue?relay SYMBOL "?relay", HalLcdWriteValue

// E:\PM2.5\Components\hal\target\CC2530EB\hal_lcd.c
//    1 /****************************************************************************
//    2 * Filename: hal_lcd.c
//    3 * Description: OLED driver
//    4 ****************************************************************************/
//    5 #include "hal_types.h"
//    6 #include "hal_lcd.h"
//    7 #include "OSAL.h"
//    8 #include "OnBoard.h"
//    9 #include "hal_assert.h"
//   10 #include <string.h>
//   11 
//   12 #if defined (ZTOOL_P1) || defined (ZTOOL_P2)
//   13   #include "DebugTrace.h"
//   14 #endif
//   15 
//   16 #define LCD_SCL P1_2       //SCLK  时钟 D0（SCLK）
//   17 #define LCD_SDA P1_3       //SDA   D1（MOSI） 数据
//   18 #define LCD_RST P1_7       //_RES  hardware reset   复位 
//   19 #define LCD_DC  P0_0       //A0  H/L 命令数据选通端，H：数据，L:命令
//   20 
//   21 #define XLevelL            0x00
//   22 #define XLevelH            0x10
//   23 #define XLevel             ((XLevelH&0x0F)*16+XLevelL)
//   24 #define Max_Column         128
//   25 #define Max_Row            64
//   26 #define Brightness         0xCF 
//   27 #define X_WIDTH            128
//   28 #define Y_WIDTH            64
//   29 
//   30 #define LCD_MAX_BUF        25
//   31 #define HAL_LCD_MAX_CHARS  16   // Max number of chars on a single LCD line 
//   32 
//   33 

        RSEG XDATA_ROM_C:CONST:REORDER:NOROOT(0)
        DATA8
//   34 const unsigned char F8X16[]=	  
F8X16:
        DB 0
        DB 0
        DB 0
        DB 0
        DB 0
        DB 0
        DB 0
        DB 0
        DB 0
        DB 0
        DB 0
        DB 0
        DB 0
        DB 0
        DB 0
        DB 0
        DB 0
        DB 0
        DB 0
        DB 248
        DB 0
        DB 0
        DB 0
        DB 0
        DB 0
        DB 0
        DB 0
        DB 51
        DB 48
        DB 0
        DB 0
        DB 0
        DB 0
        DB 16
        DB 12
        DB 6
        DB 16
        DB 12
        DB 6
        DB 0
        DB 0
        DB 0
        DB 0
        DB 0
        DB 0
        DB 0
        DB 0
        DB 0
        DB 64
        DB 192
        DB 120
        DB 64
        DB 192
        DB 120
        DB 64
        DB 0
        DB 4
        DB 63
        DB 4
        DB 4
        DB 63
        DB 4
        DB 4
        DB 0
        DB 0
        DB 112
        DB 136
        DB 252
        DB 8
        DB 48
        DB 0
        DB 0
        DB 0
        DB 24
        DB 32
        DB 255
        DB 33
        DB 30
        DB 0
        DB 0
        DB 240
        DB 8
        DB 240
        DB 0
        DB 224
        DB 24
        DB 0
        DB 0
        DB 0
        DB 33
        DB 28
        DB 3
        DB 30
        DB 33
        DB 30
        DB 0
        DB 0
        DB 240
        DB 8
        DB 136
        DB 112
        DB 0
        DB 0
        DB 0
        DB 30
        DB 33
        DB 35
        DB 36
        DB 25
        DB 39
        DB 33
        DB 16
        DB 16
        DB 22
        DB 14
        DB 0
        DB 0
        DB 0
        DB 0
        DB 0
        DB 0
        DB 0
        DB 0
        DB 0
        DB 0
        DB 0
        DB 0
        DB 0
        DB 0
        DB 0
        DB 0
        DB 224
        DB 24
        DB 4
        DB 2
        DB 0
        DB 0
        DB 0
        DB 0
        DB 7
        DB 24
        DB 32
        DB 64
        DB 0
        DB 0
        DB 2
        DB 4
        DB 24
        DB 224
        DB 0
        DB 0
        DB 0
        DB 0
        DB 64
        DB 32
        DB 24
        DB 7
        DB 0
        DB 0
        DB 0
        DB 64
        DB 64
        DB 128
        DB 240
        DB 128
        DB 64
        DB 64
        DB 0
        DB 2
        DB 2
        DB 1
        DB 15
        DB 1
        DB 2
        DB 2
        DB 0
        DB 0
        DB 0
        DB 0
        DB 240
        DB 0
        DB 0
        DB 0
        DB 0
        DB 1
        DB 1
        DB 1
        DB 31
        DB 1
        DB 1
        DB 1
        DB 0
        DB 0
        DB 0
        DB 0
        DB 0
        DB 0
        DB 0
        DB 0
        DB 0
        DB 128
        DB 176
        DB 112
        DB 0
        DB 0
        DB 0
        DB 0
        DB 0
        DB 0
        DB 0
        DB 0
        DB 0
        DB 0
        DB 0
        DB 0
        DB 0
        DB 0
        DB 1
        DB 1
        DB 1
        DB 1
        DB 1
        DB 1
        DB 1
        DB 0
        DB 0
        DB 0
        DB 0
        DB 0
        DB 0
        DB 0
        DB 0
        DB 0
        DB 48
        DB 48
        DB 0
        DB 0
        DB 0
        DB 0
        DB 0
        DB 0
        DB 0
        DB 0
        DB 0
        DB 128
        DB 96
        DB 24
        DB 4
        DB 0
        DB 96
        DB 24
        DB 6
        DB 1
        DB 0
        DB 0
        DB 0
        DB 0
        DB 224
        DB 16
        DB 8
        DB 8
        DB 16
        DB 224
        DB 0
        DB 0
        DB 15
        DB 16
        DB 32
        DB 32
        DB 16
        DB 15
        DB 0
        DB 0
        DB 16
        DB 16
        DB 248
        DB 0
        DB 0
        DB 0
        DB 0
        DB 0
        DB 32
        DB 32
        DB 63
        DB 32
        DB 32
        DB 0
        DB 0
        DB 0
        DB 112
        DB 8
        DB 8
        DB 8
        DB 136
        DB 112
        DB 0
        DB 0
        DB 48
        DB 40
        DB 36
        DB 34
        DB 33
        DB 48
        DB 0
        DB 0
        DB 48
        DB 8
        DB 136
        DB 136
        DB 72
        DB 48
        DB 0
        DB 0
        DB 24
        DB 32
        DB 32
        DB 32
        DB 17
        DB 14
        DB 0
        DB 0
        DB 0
        DB 192
        DB 32
        DB 16
        DB 248
        DB 0
        DB 0
        DB 0
        DB 7
        DB 4
        DB 36
        DB 36
        DB 63
        DB 36
        DB 0
        DB 0
        DB 248
        DB 8
        DB 136
        DB 136
        DB 8
        DB 8
        DB 0
        DB 0
        DB 25
        DB 33
        DB 32
        DB 32
        DB 17
        DB 14
        DB 0
        DB 0
        DB 224
        DB 16
        DB 136
        DB 136
        DB 24
        DB 0
        DB 0
        DB 0
        DB 15
        DB 17
        DB 32
        DB 32
        DB 17
        DB 14
        DB 0
        DB 0
        DB 56
        DB 8
        DB 8
        DB 200
        DB 56
        DB 8
        DB 0
        DB 0
        DB 0
        DB 0
        DB 63
        DB 0
        DB 0
        DB 0
        DB 0
        DB 0
        DB 112
        DB 136
        DB 8
        DB 8
        DB 136
        DB 112
        DB 0
        DB 0
        DB 28
        DB 34
        DB 33
        DB 33
        DB 34
        DB 28
        DB 0
        DB 0
        DB 224
        DB 16
        DB 8
        DB 8
        DB 16
        DB 224
        DB 0
        DB 0
        DB 0
        DB 49
        DB 34
        DB 34
        DB 17
        DB 15
        DB 0
        DB 0
        DB 0
        DB 0
        DB 192
        DB 192
        DB 0
        DB 0
        DB 0
        DB 0
        DB 0
        DB 0
        DB 48
        DB 48
        DB 0
        DB 0
        DB 0
        DB 0
        DB 0
        DB 0
        DB 128
        DB 0
        DB 0
        DB 0
        DB 0
        DB 0
        DB 0
        DB 128
        DB 96
        DB 0
        DB 0
        DB 0
        DB 0
        DB 0
        DB 0
        DB 128
        DB 64
        DB 32
        DB 16
        DB 8
        DB 0
        DB 0
        DB 1
        DB 2
        DB 4
        DB 8
        DB 16
        DB 32
        DB 0
        DB 64
        DB 64
        DB 64
        DB 64
        DB 64
        DB 64
        DB 64
        DB 0
        DB 4
        DB 4
        DB 4
        DB 4
        DB 4
        DB 4
        DB 4
        DB 0
        DB 0
        DB 8
        DB 16
        DB 32
        DB 64
        DB 128
        DB 0
        DB 0
        DB 0
        DB 32
        DB 16
        DB 8
        DB 4
        DB 2
        DB 1
        DB 0
        DB 0
        DB 112
        DB 72
        DB 8
        DB 8
        DB 8
        DB 240
        DB 0
        DB 0
        DB 0
        DB 0
        DB 48
        DB 54
        DB 1
        DB 0
        DB 0
        DB 192
        DB 48
        DB 200
        DB 40
        DB 232
        DB 16
        DB 224
        DB 0
        DB 7
        DB 24
        DB 39
        DB 36
        DB 35
        DB 20
        DB 11
        DB 0
        DB 0
        DB 0
        DB 192
        DB 56
        DB 224
        DB 0
        DB 0
        DB 0
        DB 32
        DB 60
        DB 35
        DB 2
        DB 2
        DB 39
        DB 56
        DB 32
        DB 8
        DB 248
        DB 136
        DB 136
        DB 136
        DB 112
        DB 0
        DB 0
        DB 32
        DB 63
        DB 32
        DB 32
        DB 32
        DB 17
        DB 14
        DB 0
        DB 192
        DB 48
        DB 8
        DB 8
        DB 8
        DB 8
        DB 56
        DB 0
        DB 7
        DB 24
        DB 32
        DB 32
        DB 32
        DB 16
        DB 8
        DB 0
        DB 8
        DB 248
        DB 8
        DB 8
        DB 8
        DB 16
        DB 224
        DB 0
        DB 32
        DB 63
        DB 32
        DB 32
        DB 32
        DB 16
        DB 15
        DB 0
        DB 8
        DB 248
        DB 136
        DB 136
        DB 232
        DB 8
        DB 16
        DB 0
        DB 32
        DB 63
        DB 32
        DB 32
        DB 35
        DB 32
        DB 24
        DB 0
        DB 8
        DB 248
        DB 136
        DB 136
        DB 232
        DB 8
        DB 16
        DB 0
        DB 32
        DB 63
        DB 32
        DB 0
        DB 3
        DB 0
        DB 0
        DB 0
        DB 192
        DB 48
        DB 8
        DB 8
        DB 8
        DB 56
        DB 0
        DB 0
        DB 7
        DB 24
        DB 32
        DB 32
        DB 34
        DB 30
        DB 2
        DB 0
        DB 8
        DB 248
        DB 8
        DB 0
        DB 0
        DB 8
        DB 248
        DB 8
        DB 32
        DB 63
        DB 33
        DB 1
        DB 1
        DB 33
        DB 63
        DB 32
        DB 0
        DB 8
        DB 8
        DB 248
        DB 8
        DB 8
        DB 0
        DB 0
        DB 0
        DB 32
        DB 32
        DB 63
        DB 32
        DB 32
        DB 0
        DB 0
        DB 0
        DB 0
        DB 8
        DB 8
        DB 248
        DB 8
        DB 8
        DB 0
        DB 192
        DB 128
        DB 128
        DB 128
        DB 127
        DB 0
        DB 0
        DB 0
        DB 8
        DB 248
        DB 136
        DB 192
        DB 40
        DB 24
        DB 8
        DB 0
        DB 32
        DB 63
        DB 32
        DB 1
        DB 38
        DB 56
        DB 32
        DB 0
        DB 8
        DB 248
        DB 8
        DB 0
        DB 0
        DB 0
        DB 0
        DB 0
        DB 32
        DB 63
        DB 32
        DB 32
        DB 32
        DB 32
        DB 48
        DB 0
        DB 8
        DB 248
        DB 248
        DB 0
        DB 248
        DB 248
        DB 8
        DB 0
        DB 32
        DB 63
        DB 0
        DB 63
        DB 0
        DB 63
        DB 32
        DB 0
        DB 8
        DB 248
        DB 48
        DB 192
        DB 0
        DB 8
        DB 248
        DB 8
        DB 32
        DB 63
        DB 32
        DB 0
        DB 7
        DB 24
        DB 63
        DB 0
        DB 224
        DB 16
        DB 8
        DB 8
        DB 8
        DB 16
        DB 224
        DB 0
        DB 15
        DB 16
        DB 32
        DB 32
        DB 32
        DB 16
        DB 15
        DB 0
        DB 8
        DB 248
        DB 8
        DB 8
        DB 8
        DB 8
        DB 240
        DB 0
        DB 32
        DB 63
        DB 33
        DB 1
        DB 1
        DB 1
        DB 0
        DB 0
        DB 224
        DB 16
        DB 8
        DB 8
        DB 8
        DB 16
        DB 224
        DB 0
        DB 15
        DB 24
        DB 36
        DB 36
        DB 56
        DB 80
        DB 79
        DB 0
        DB 8
        DB 248
        DB 136
        DB 136
        DB 136
        DB 136
        DB 112
        DB 0
        DB 32
        DB 63
        DB 32
        DB 0
        DB 3
        DB 12
        DB 48
        DB 32
        DB 0
        DB 112
        DB 136
        DB 8
        DB 8
        DB 8
        DB 56
        DB 0
        DB 0
        DB 56
        DB 32
        DB 33
        DB 33
        DB 34
        DB 28
        DB 0
        DB 24
        DB 8
        DB 8
        DB 248
        DB 8
        DB 8
        DB 24
        DB 0
        DB 0
        DB 0
        DB 32
        DB 63
        DB 32
        DB 0
        DB 0
        DB 0
        DB 8
        DB 248
        DB 8
        DB 0
        DB 0
        DB 8
        DB 248
        DB 8
        DB 0
        DB 31
        DB 32
        DB 32
        DB 32
        DB 32
        DB 31
        DB 0
        DB 8
        DB 120
        DB 136
        DB 0
        DB 0
        DB 200
        DB 56
        DB 8
        DB 0
        DB 0
        DB 7
        DB 56
        DB 14
        DB 1
        DB 0
        DB 0
        DB 248
        DB 8
        DB 0
        DB 248
        DB 0
        DB 8
        DB 248
        DB 0
        DB 3
        DB 60
        DB 7
        DB 0
        DB 7
        DB 60
        DB 3
        DB 0
        DB 8
        DB 24
        DB 104
        DB 128
        DB 128
        DB 104
        DB 24
        DB 8
        DB 32
        DB 48
        DB 44
        DB 3
        DB 3
        DB 44
        DB 48
        DB 32
        DB 8
        DB 56
        DB 200
        DB 0
        DB 200
        DB 56
        DB 8
        DB 0
        DB 0
        DB 0
        DB 32
        DB 63
        DB 32
        DB 0
        DB 0
        DB 0
        DB 16
        DB 8
        DB 8
        DB 8
        DB 200
        DB 56
        DB 8
        DB 0
        DB 32
        DB 56
        DB 38
        DB 33
        DB 32
        DB 32
        DB 24
        DB 0
        DB 0
        DB 0
        DB 0
        DB 254
        DB 2
        DB 2
        DB 2
        DB 0
        DB 0
        DB 0
        DB 0
        DB 127
        DB 64
        DB 64
        DB 64
        DB 0
        DB 0
        DB 12
        DB 48
        DB 192
        DB 0
        DB 0
        DB 0
        DB 0
        DB 0
        DB 0
        DB 0
        DB 1
        DB 6
        DB 56
        DB 192
        DB 0
        DB 0
        DB 2
        DB 2
        DB 2
        DB 254
        DB 0
        DB 0
        DB 0
        DB 0
        DB 64
        DB 64
        DB 64
        DB 127
        DB 0
        DB 0
        DB 0
        DB 0
        DB 0
        DB 4
        DB 2
        DB 2
        DB 2
        DB 4
        DB 0
        DB 0
        DB 0
        DB 0
        DB 0
        DB 0
        DB 0
        DB 0
        DB 0
        DB 0
        DB 0
        DB 0
        DB 0
        DB 0
        DB 0
        DB 0
        DB 0
        DB 128
        DB 128
        DB 128
        DB 128
        DB 128
        DB 128
        DB 128
        DB 128
        DB 0
        DB 2
        DB 2
        DB 4
        DB 0
        DB 0
        DB 0
        DB 0
        DB 0
        DB 0
        DB 0
        DB 0
        DB 0
        DB 0
        DB 0
        DB 0
        DB 0
        DB 0
        DB 128
        DB 128
        DB 128
        DB 128
        DB 0
        DB 0
        DB 0
        DB 25
        DB 36
        DB 34
        DB 34
        DB 34
        DB 63
        DB 32
        DB 8
        DB 248
        DB 0
        DB 128
        DB 128
        DB 0
        DB 0
        DB 0
        DB 0
        DB 63
        DB 17
        DB 32
        DB 32
        DB 17
        DB 14
        DB 0
        DB 0
        DB 0
        DB 0
        DB 128
        DB 128
        DB 128
        DB 0
        DB 0
        DB 0
        DB 14
        DB 17
        DB 32
        DB 32
        DB 32
        DB 17
        DB 0
        DB 0
        DB 0
        DB 0
        DB 128
        DB 128
        DB 136
        DB 248
        DB 0
        DB 0
        DB 14
        DB 17
        DB 32
        DB 32
        DB 16
        DB 63
        DB 32
        DB 0
        DB 0
        DB 128
        DB 128
        DB 128
        DB 128
        DB 0
        DB 0
        DB 0
        DB 31
        DB 34
        DB 34
        DB 34
        DB 34
        DB 19
        DB 0
        DB 0
        DB 128
        DB 128
        DB 240
        DB 136
        DB 136
        DB 136
        DB 24
        DB 0
        DB 32
        DB 32
        DB 63
        DB 32
        DB 32
        DB 0
        DB 0
        DB 0
        DB 0
        DB 128
        DB 128
        DB 128
        DB 128
        DB 128
        DB 0
        DB 0
        DB 107
        DB 148
        DB 148
        DB 148
        DB 147
        DB 96
        DB 0
        DB 8
        DB 248
        DB 0
        DB 128
        DB 128
        DB 128
        DB 0
        DB 0
        DB 32
        DB 63
        DB 33
        DB 0
        DB 0
        DB 32
        DB 63
        DB 32
        DB 0
        DB 128
        DB 152
        DB 152
        DB 0
        DB 0
        DB 0
        DB 0
        DB 0
        DB 32
        DB 32
        DB 63
        DB 32
        DB 32
        DB 0
        DB 0
        DB 0
        DB 0
        DB 0
        DB 128
        DB 152
        DB 152
        DB 0
        DB 0
        DB 0
        DB 192
        DB 128
        DB 128
        DB 128
        DB 127
        DB 0
        DB 0
        DB 8
        DB 248
        DB 0
        DB 0
        DB 128
        DB 128
        DB 128
        DB 0
        DB 32
        DB 63
        DB 36
        DB 2
        DB 45
        DB 48
        DB 32
        DB 0
        DB 0
        DB 8
        DB 8
        DB 248
        DB 0
        DB 0
        DB 0
        DB 0
        DB 0
        DB 32
        DB 32
        DB 63
        DB 32
        DB 32
        DB 0
        DB 0
        DB 128
        DB 128
        DB 128
        DB 128
        DB 128
        DB 128
        DB 128
        DB 0
        DB 32
        DB 63
        DB 32
        DB 0
        DB 63
        DB 32
        DB 0
        DB 63
        DB 128
        DB 128
        DB 0
        DB 128
        DB 128
        DB 128
        DB 0
        DB 0
        DB 32
        DB 63
        DB 33
        DB 0
        DB 0
        DB 32
        DB 63
        DB 32
        DB 0
        DB 0
        DB 128
        DB 128
        DB 128
        DB 128
        DB 0
        DB 0
        DB 0
        DB 31
        DB 32
        DB 32
        DB 32
        DB 32
        DB 31
        DB 0
        DB 128
        DB 128
        DB 0
        DB 128
        DB 128
        DB 0
        DB 0
        DB 0
        DB 128
        DB 255
        DB 161
        DB 32
        DB 32
        DB 17
        DB 14
        DB 0
        DB 0
        DB 0
        DB 0
        DB 128
        DB 128
        DB 128
        DB 128
        DB 0
        DB 0
        DB 14
        DB 17
        DB 32
        DB 32
        DB 160
        DB 255
        DB 128
        DB 128
        DB 128
        DB 128
        DB 0
        DB 128
        DB 128
        DB 128
        DB 0
        DB 32
        DB 32
        DB 63
        DB 33
        DB 32
        DB 0
        DB 1
        DB 0
        DB 0
        DB 0
        DB 128
        DB 128
        DB 128
        DB 128
        DB 128
        DB 0
        DB 0
        DB 51
        DB 36
        DB 36
        DB 36
        DB 36
        DB 25
        DB 0
        DB 0
        DB 128
        DB 128
        DB 224
        DB 128
        DB 128
        DB 0
        DB 0
        DB 0
        DB 0
        DB 0
        DB 31
        DB 32
        DB 32
        DB 0
        DB 0
        DB 128
        DB 128
        DB 0
        DB 0
        DB 0
        DB 128
        DB 128
        DB 0
        DB 0
        DB 31
        DB 32
        DB 32
        DB 32
        DB 16
        DB 63
        DB 32
        DB 128
        DB 128
        DB 128
        DB 0
        DB 0
        DB 128
        DB 128
        DB 128
        DB 0
        DB 1
        DB 14
        DB 48
        DB 8
        DB 6
        DB 1
        DB 0
        DB 128
        DB 128
        DB 0
        DB 128
        DB 0
        DB 128
        DB 128
        DB 128
        DB 15
        DB 48
        DB 12
        DB 3
        DB 12
        DB 48
        DB 15
        DB 0
        DB 0
        DB 128
        DB 128
        DB 0
        DB 128
        DB 128
        DB 128
        DB 0
        DB 0
        DB 32
        DB 49
        DB 46
        DB 14
        DB 49
        DB 32
        DB 0
        DB 128
        DB 128
        DB 128
        DB 0
        DB 0
        DB 128
        DB 128
        DB 128
        DB 128
        DB 129
        DB 142
        DB 112
        DB 24
        DB 6
        DB 1
        DB 0
        DB 0
        DB 128
        DB 128
        DB 128
        DB 128
        DB 128
        DB 128
        DB 0
        DB 0
        DB 33
        DB 48
        DB 44
        DB 34
        DB 33
        DB 48
        DB 0
        DB 0
        DB 0
        DB 0
        DB 0
        DB 128
        DB 124
        DB 2
        DB 2
        DB 0
        DB 0
        DB 0
        DB 0
        DB 0
        DB 63
        DB 64
        DB 64
        DB 0
        DB 0
        DB 0
        DB 0
        DB 255
        DB 0
        DB 0
        DB 0
        DB 0
        DB 0
        DB 0
        DB 0
        DB 255
        DB 0
        DB 0
        DB 0
        DB 0
        DB 2
        DB 2
        DB 124
        DB 128
        DB 0
        DB 0
        DB 0
        DB 0
        DB 64
        DB 64
        DB 63
        DB 0
        DB 0
        DB 0
        DB 0
        DB 0
        DB 6
        DB 1
        DB 1
        DB 2
        DB 2
        DB 4
        DB 4
        DB 0
        DB 0
        DB 0
        DB 0
        DB 0
        DB 0
        DB 0
        DB 0
//   35 {
//   36   0x00,0x00,0x00,0x00,0x00,0x00,0x00,0x00,0x00,0x00,0x00,0x00,0x00,0x00,0x00,0x00,// 0
//   37   0x00,0x00,0x00,0xF8,0x00,0x00,0x00,0x00,0x00,0x00,0x00,0x33,0x30,0x00,0x00,0x00,//! 1
//   38   0x00,0x10,0x0C,0x06,0x10,0x0C,0x06,0x00,0x00,0x00,0x00,0x00,0x00,0x00,0x00,0x00,//" 2
//   39   0x40,0xC0,0x78,0x40,0xC0,0x78,0x40,0x00,0x04,0x3F,0x04,0x04,0x3F,0x04,0x04,0x00,//# 3
//   40   0x00,0x70,0x88,0xFC,0x08,0x30,0x00,0x00,0x00,0x18,0x20,0xFF,0x21,0x1E,0x00,0x00,//$ 4
//   41   0xF0,0x08,0xF0,0x00,0xE0,0x18,0x00,0x00,0x00,0x21,0x1C,0x03,0x1E,0x21,0x1E,0x00,//% 5
//   42   0x00,0xF0,0x08,0x88,0x70,0x00,0x00,0x00,0x1E,0x21,0x23,0x24,0x19,0x27,0x21,0x10,//& 6
//   43   0x10,0x16,0x0E,0x00,0x00,0x00,0x00,0x00,0x00,0x00,0x00,0x00,0x00,0x00,0x00,0x00,//' 7
//   44   0x00,0x00,0x00,0xE0,0x18,0x04,0x02,0x00,0x00,0x00,0x00,0x07,0x18,0x20,0x40,0x00,//( 8
//   45   0x00,0x02,0x04,0x18,0xE0,0x00,0x00,0x00,0x00,0x40,0x20,0x18,0x07,0x00,0x00,0x00,//) 9
//   46   0x40,0x40,0x80,0xF0,0x80,0x40,0x40,0x00,0x02,0x02,0x01,0x0F,0x01,0x02,0x02,0x00,//* 10
//   47   0x00,0x00,0x00,0xF0,0x00,0x00,0x00,0x00,0x01,0x01,0x01,0x1F,0x01,0x01,0x01,0x00,//+ 11
//   48   0x00,0x00,0x00,0x00,0x00,0x00,0x00,0x00,0x80,0xB0,0x70,0x00,0x00,0x00,0x00,0x00,//, 12
//   49   0x00,0x00,0x00,0x00,0x00,0x00,0x00,0x00,0x00,0x01,0x01,0x01,0x01,0x01,0x01,0x01,//- 13
//   50   0x00,0x00,0x00,0x00,0x00,0x00,0x00,0x00,0x00,0x30,0x30,0x00,0x00,0x00,0x00,0x00,//. 14
//   51   0x00,0x00,0x00,0x00,0x80,0x60,0x18,0x04,0x00,0x60,0x18,0x06,0x01,0x00,0x00,0x00,/// 15
//   52   0x00,0xE0,0x10,0x08,0x08,0x10,0xE0,0x00,0x00,0x0F,0x10,0x20,0x20,0x10,0x0F,0x00,//0 16
//   53   0x00,0x10,0x10,0xF8,0x00,0x00,0x00,0x00,0x00,0x20,0x20,0x3F,0x20,0x20,0x00,0x00,//1 17
//   54   0x00,0x70,0x08,0x08,0x08,0x88,0x70,0x00,0x00,0x30,0x28,0x24,0x22,0x21,0x30,0x00,//2 18
//   55   0x00,0x30,0x08,0x88,0x88,0x48,0x30,0x00,0x00,0x18,0x20,0x20,0x20,0x11,0x0E,0x00,//3 19
//   56   0x00,0x00,0xC0,0x20,0x10,0xF8,0x00,0x00,0x00,0x07,0x04,0x24,0x24,0x3F,0x24,0x00,//4 20
//   57   0x00,0xF8,0x08,0x88,0x88,0x08,0x08,0x00,0x00,0x19,0x21,0x20,0x20,0x11,0x0E,0x00,//5 21
//   58   0x00,0xE0,0x10,0x88,0x88,0x18,0x00,0x00,0x00,0x0F,0x11,0x20,0x20,0x11,0x0E,0x00,//6 22
//   59   0x00,0x38,0x08,0x08,0xC8,0x38,0x08,0x00,0x00,0x00,0x00,0x3F,0x00,0x00,0x00,0x00,//7 23
//   60   0x00,0x70,0x88,0x08,0x08,0x88,0x70,0x00,0x00,0x1C,0x22,0x21,0x21,0x22,0x1C,0x00,//8 24
//   61   0x00,0xE0,0x10,0x08,0x08,0x10,0xE0,0x00,0x00,0x00,0x31,0x22,0x22,0x11,0x0F,0x00,//9 25
//   62   0x00,0x00,0x00,0xC0,0xC0,0x00,0x00,0x00,0x00,0x00,0x00,0x30,0x30,0x00,0x00,0x00,//: 26
//   63   0x00,0x00,0x00,0x80,0x00,0x00,0x00,0x00,0x00,0x00,0x80,0x60,0x00,0x00,0x00,0x00,//; 27
//   64   0x00,0x00,0x80,0x40,0x20,0x10,0x08,0x00,0x00,0x01,0x02,0x04,0x08,0x10,0x20,0x00,//< 28
//   65   0x40,0x40,0x40,0x40,0x40,0x40,0x40,0x00,0x04,0x04,0x04,0x04,0x04,0x04,0x04,0x00,//= 29
//   66   0x00,0x08,0x10,0x20,0x40,0x80,0x00,0x00,0x00,0x20,0x10,0x08,0x04,0x02,0x01,0x00,//> 30
//   67   0x00,0x70,0x48,0x08,0x08,0x08,0xF0,0x00,0x00,0x00,0x00,0x30,0x36,0x01,0x00,0x00,//? 31
//   68   0xC0,0x30,0xC8,0x28,0xE8,0x10,0xE0,0x00,0x07,0x18,0x27,0x24,0x23,0x14,0x0B,0x00,//@ 32
//   69   0x00,0x00,0xC0,0x38,0xE0,0x00,0x00,0x00,0x20,0x3C,0x23,0x02,0x02,0x27,0x38,0x20,//A 33
//   70   0x08,0xF8,0x88,0x88,0x88,0x70,0x00,0x00,0x20,0x3F,0x20,0x20,0x20,0x11,0x0E,0x00,//B 34
//   71   0xC0,0x30,0x08,0x08,0x08,0x08,0x38,0x00,0x07,0x18,0x20,0x20,0x20,0x10,0x08,0x00,//C 35
//   72   0x08,0xF8,0x08,0x08,0x08,0x10,0xE0,0x00,0x20,0x3F,0x20,0x20,0x20,0x10,0x0F,0x00,//D 36
//   73   0x08,0xF8,0x88,0x88,0xE8,0x08,0x10,0x00,0x20,0x3F,0x20,0x20,0x23,0x20,0x18,0x00,//E 37
//   74   0x08,0xF8,0x88,0x88,0xE8,0x08,0x10,0x00,0x20,0x3F,0x20,0x00,0x03,0x00,0x00,0x00,//F 38
//   75   0xC0,0x30,0x08,0x08,0x08,0x38,0x00,0x00,0x07,0x18,0x20,0x20,0x22,0x1E,0x02,0x00,//G 39
//   76   0x08,0xF8,0x08,0x00,0x00,0x08,0xF8,0x08,0x20,0x3F,0x21,0x01,0x01,0x21,0x3F,0x20,//H 40
//   77   0x00,0x08,0x08,0xF8,0x08,0x08,0x00,0x00,0x00,0x20,0x20,0x3F,0x20,0x20,0x00,0x00,//I 41
//   78   0x00,0x00,0x08,0x08,0xF8,0x08,0x08,0x00,0xC0,0x80,0x80,0x80,0x7F,0x00,0x00,0x00,//J 42
//   79   0x08,0xF8,0x88,0xC0,0x28,0x18,0x08,0x00,0x20,0x3F,0x20,0x01,0x26,0x38,0x20,0x00,//K 43
//   80   0x08,0xF8,0x08,0x00,0x00,0x00,0x00,0x00,0x20,0x3F,0x20,0x20,0x20,0x20,0x30,0x00,//L 44
//   81   0x08,0xF8,0xF8,0x00,0xF8,0xF8,0x08,0x00,0x20,0x3F,0x00,0x3F,0x00,0x3F,0x20,0x00,//M 45
//   82   0x08,0xF8,0x30,0xC0,0x00,0x08,0xF8,0x08,0x20,0x3F,0x20,0x00,0x07,0x18,0x3F,0x00,//N 46
//   83   0xE0,0x10,0x08,0x08,0x08,0x10,0xE0,0x00,0x0F,0x10,0x20,0x20,0x20,0x10,0x0F,0x00,//O 47
//   84   0x08,0xF8,0x08,0x08,0x08,0x08,0xF0,0x00,0x20,0x3F,0x21,0x01,0x01,0x01,0x00,0x00,//P 48
//   85   0xE0,0x10,0x08,0x08,0x08,0x10,0xE0,0x00,0x0F,0x18,0x24,0x24,0x38,0x50,0x4F,0x00,//Q 49
//   86   0x08,0xF8,0x88,0x88,0x88,0x88,0x70,0x00,0x20,0x3F,0x20,0x00,0x03,0x0C,0x30,0x20,//R 50
//   87   0x00,0x70,0x88,0x08,0x08,0x08,0x38,0x00,0x00,0x38,0x20,0x21,0x21,0x22,0x1C,0x00,//S 51
//   88   0x18,0x08,0x08,0xF8,0x08,0x08,0x18,0x00,0x00,0x00,0x20,0x3F,0x20,0x00,0x00,0x00,//T 52
//   89   0x08,0xF8,0x08,0x00,0x00,0x08,0xF8,0x08,0x00,0x1F,0x20,0x20,0x20,0x20,0x1F,0x00,//U 53
//   90   0x08,0x78,0x88,0x00,0x00,0xC8,0x38,0x08,0x00,0x00,0x07,0x38,0x0E,0x01,0x00,0x00,//V 54
//   91   0xF8,0x08,0x00,0xF8,0x00,0x08,0xF8,0x00,0x03,0x3C,0x07,0x00,0x07,0x3C,0x03,0x00,//W 55
//   92   0x08,0x18,0x68,0x80,0x80,0x68,0x18,0x08,0x20,0x30,0x2C,0x03,0x03,0x2C,0x30,0x20,//X 56
//   93   0x08,0x38,0xC8,0x00,0xC8,0x38,0x08,0x00,0x00,0x00,0x20,0x3F,0x20,0x00,0x00,0x00,//Y 57
//   94   0x10,0x08,0x08,0x08,0xC8,0x38,0x08,0x00,0x20,0x38,0x26,0x21,0x20,0x20,0x18,0x00,//Z 58
//   95   0x00,0x00,0x00,0xFE,0x02,0x02,0x02,0x00,0x00,0x00,0x00,0x7F,0x40,0x40,0x40,0x00,//[ 59
//   96   0x00,0x0C,0x30,0xC0,0x00,0x00,0x00,0x00,0x00,0x00,0x00,0x01,0x06,0x38,0xC0,0x00,//\ 60
//   97   0x00,0x02,0x02,0x02,0xFE,0x00,0x00,0x00,0x00,0x40,0x40,0x40,0x7F,0x00,0x00,0x00,//] 61
//   98   0x00,0x00,0x04,0x02,0x02,0x02,0x04,0x00,0x00,0x00,0x00,0x00,0x00,0x00,0x00,0x00,//^ 62
//   99   0x00,0x00,0x00,0x00,0x00,0x00,0x00,0x00,0x80,0x80,0x80,0x80,0x80,0x80,0x80,0x80,//_ 63
//  100   0x00,0x02,0x02,0x04,0x00,0x00,0x00,0x00,0x00,0x00,0x00,0x00,0x00,0x00,0x00,0x00,//` 64
//  101   0x00,0x00,0x80,0x80,0x80,0x80,0x00,0x00,0x00,0x19,0x24,0x22,0x22,0x22,0x3F,0x20,//a 65
//  102   0x08,0xF8,0x00,0x80,0x80,0x00,0x00,0x00,0x00,0x3F,0x11,0x20,0x20,0x11,0x0E,0x00,//b 66
//  103   0x00,0x00,0x00,0x80,0x80,0x80,0x00,0x00,0x00,0x0E,0x11,0x20,0x20,0x20,0x11,0x00,//c 67
//  104   0x00,0x00,0x00,0x80,0x80,0x88,0xF8,0x00,0x00,0x0E,0x11,0x20,0x20,0x10,0x3F,0x20,//d 68
//  105   0x00,0x00,0x80,0x80,0x80,0x80,0x00,0x00,0x00,0x1F,0x22,0x22,0x22,0x22,0x13,0x00,//e 69
//  106   0x00,0x80,0x80,0xF0,0x88,0x88,0x88,0x18,0x00,0x20,0x20,0x3F,0x20,0x20,0x00,0x00,//f 70
//  107   0x00,0x00,0x80,0x80,0x80,0x80,0x80,0x00,0x00,0x6B,0x94,0x94,0x94,0x93,0x60,0x00,//g 71
//  108   0x08,0xF8,0x00,0x80,0x80,0x80,0x00,0x00,0x20,0x3F,0x21,0x00,0x00,0x20,0x3F,0x20,//h 72
//  109   0x00,0x80,0x98,0x98,0x00,0x00,0x00,0x00,0x00,0x20,0x20,0x3F,0x20,0x20,0x00,0x00,//i 73
//  110   0x00,0x00,0x00,0x80,0x98,0x98,0x00,0x00,0x00,0xC0,0x80,0x80,0x80,0x7F,0x00,0x00,//j 74
//  111   0x08,0xF8,0x00,0x00,0x80,0x80,0x80,0x00,0x20,0x3F,0x24,0x02,0x2D,0x30,0x20,0x00,//k 75
//  112   0x00,0x08,0x08,0xF8,0x00,0x00,0x00,0x00,0x00,0x20,0x20,0x3F,0x20,0x20,0x00,0x00,//l 76
//  113   0x80,0x80,0x80,0x80,0x80,0x80,0x80,0x00,0x20,0x3F,0x20,0x00,0x3F,0x20,0x00,0x3F,//m 77
//  114   0x80,0x80,0x00,0x80,0x80,0x80,0x00,0x00,0x20,0x3F,0x21,0x00,0x00,0x20,0x3F,0x20,//n 78
//  115   0x00,0x00,0x80,0x80,0x80,0x80,0x00,0x00,0x00,0x1F,0x20,0x20,0x20,0x20,0x1F,0x00,//o 79
//  116   0x80,0x80,0x00,0x80,0x80,0x00,0x00,0x00,0x80,0xFF,0xA1,0x20,0x20,0x11,0x0E,0x00,//p 80
//  117   0x00,0x00,0x00,0x80,0x80,0x80,0x80,0x00,0x00,0x0E,0x11,0x20,0x20,0xA0,0xFF,0x80,//q 81
//  118   0x80,0x80,0x80,0x00,0x80,0x80,0x80,0x00,0x20,0x20,0x3F,0x21,0x20,0x00,0x01,0x00,//r 82
//  119   0x00,0x00,0x80,0x80,0x80,0x80,0x80,0x00,0x00,0x33,0x24,0x24,0x24,0x24,0x19,0x00,//s 83
//  120   0x00,0x80,0x80,0xE0,0x80,0x80,0x00,0x00,0x00,0x00,0x00,0x1F,0x20,0x20,0x00,0x00,//t 84
//  121   0x80,0x80,0x00,0x00,0x00,0x80,0x80,0x00,0x00,0x1F,0x20,0x20,0x20,0x10,0x3F,0x20,//u 85
//  122   0x80,0x80,0x80,0x00,0x00,0x80,0x80,0x80,0x00,0x01,0x0E,0x30,0x08,0x06,0x01,0x00,//v 86
//  123   0x80,0x80,0x00,0x80,0x00,0x80,0x80,0x80,0x0F,0x30,0x0C,0x03,0x0C,0x30,0x0F,0x00,//w 87
//  124   0x00,0x80,0x80,0x00,0x80,0x80,0x80,0x00,0x00,0x20,0x31,0x2E,0x0E,0x31,0x20,0x00,//x 88
//  125   0x80,0x80,0x80,0x00,0x00,0x80,0x80,0x80,0x80,0x81,0x8E,0x70,0x18,0x06,0x01,0x00,//y 89
//  126   0x00,0x80,0x80,0x80,0x80,0x80,0x80,0x00,0x00,0x21,0x30,0x2C,0x22,0x21,0x30,0x00,//z 90
//  127   0x00,0x00,0x00,0x00,0x80,0x7C,0x02,0x02,0x00,0x00,0x00,0x00,0x00,0x3F,0x40,0x40,//{ 91
//  128   0x00,0x00,0x00,0x00,0xFF,0x00,0x00,0x00,0x00,0x00,0x00,0x00,0xFF,0x00,0x00,0x00,//| 92
//  129   0x00,0x02,0x02,0x7C,0x80,0x00,0x00,0x00,0x00,0x40,0x40,0x3F,0x00,0x00,0x00,0x00,//} 93
//  130   0x00,0x06,0x01,0x01,0x02,0x02,0x04,0x04,0x00,0x00,0x00,0x00,0x00,0x00,0x00,0x00,//~ 94
//  131 };
//  132 
//  133 /***************************16*16的点阵字体取模方式：共阴――列行式――逆向输出*********/

        RSEG XDATA_I:XDATA:NOROOT(0)
//  134 unsigned char F16x16[] = 	  	 
F16x16:
        DATA8
        DS 128
        REQUIRE `?<Initializer for F16x16>`
        REQUIRE __INIT_XDATA_I
//  135 {  	
//  136 /*--  文字:  温  --*/
//  137 /*--  宋体12;  此字体下对应的点阵为：宽x高=16x16   --*/
//  138 0x10,0x21,0x86,0x70,0x00,0x7E,0x4A,0x4A,0x4A,0x4A,0x4A,0x7E,0x00,0x00,0x00,0x00,
//  139 0x02,0xFE,0x01,0x40,0x7F,0x41,0x41,0x7F,0x41,0x41,0x7F,0x41,0x41,0x7F,0x40,0x00,
//  140 
//  141 /*--  文字:  度  --*/
//  142 /*--  宋体12;  此字体下对应的点阵为：宽x高=16x16   --*/
//  143 0x00,0x00,0xFC,0x04,0x24,0x24,0xFC,0xA5,0xA6,0xA4,0xFC,0x24,0x24,0x24,0x04,0x00,
//  144 0x80,0x60,0x1F,0x80,0x80,0x42,0x46,0x2A,0x12,0x12,0x2A,0x26,0x42,0xC0,0x40,0x00,
//  145 
//  146 /*--  文字:  ：  --*/
//  147 /*--  宋体12;  此字体下对应的点阵为：宽x高=16x16   --*/
//  148 0x00,0x00,0x00,0x00,0x00,0x00,0x00,0x00,0x00,0x00,0x00,0x00,0x00,0x00,0x00,0x00,
//  149 0x00,0x00,0x36,0x36,0x00,0x00,0x00,0x00,0x00,0x00,0x00,0x00,0x00,0x00,0x00,0x00,
//  150 
//  151 /*--  文字:  湿  --*/
//  152 /*--  宋体12;  此字体下对应的点阵为：宽x高=16x16   --*/
//  153 0x10,0x60,0x02,0xCC,0x00,0x00,0x3E,0x2A,0xAA,0x2A,0xAA,0x2A,0x3E,0x00,0x00,0x00,
//  154 0x08,0x08,0xFE,0x01,0x40,0x42,0x4C,0x40,0x7F,0x40,0x7F,0x48,0x44,0x42,0x40,0x00,
//  155 
//  156 };
//  157 
//  158 
//  159 #if (HAL_LCD == TRUE)
//  160 void HalLcd_HW_Init(void);
//  161 void HalLcd_HW_WaitUs(uint16 i);
//  162 void HalLcd_HW_Clear(void);
//  163 void HalLcd_HW_Control(uint8 cmd);
//  164 void HalLcd_HW_Write(uint8 data);
//  165 void HalLcd_HW_SetContrast(uint8 value);
//  166 void HalLcd_HW_WriteChar(uint8 line, uint8 col, char text);
//  167 void HalLcd_HW_WriteLine(uint8 line, const char *pText);
//  168 
//  169 void DelayMS(unsigned int msec);
//  170 void LCD_DLY_ms(unsigned int ms);
//  171 void LCD_WrDat(unsigned char dat);
//  172 void LCD_WrCmd(unsigned char cmd);
//  173 void LCD_Set_Pos(unsigned char x, unsigned char y);
//  174 void LCD_Fill(unsigned char bmp_dat) ;
//  175 void LCD_CLS(void);
//  176 void LcdClearLine(unsigned char y, unsigned char count);
//  177 
//  178 void LCD_P8x16Str(unsigned char x, unsigned char y,unsigned char ch[]);
//  179 void HalLcdDisplayPercentBar( char *title, uint8 value );
//  180 void LCD_P16x16Ch(unsigned char x, unsigned char y, unsigned char N);
//  181 #endif //LCD
//  182 
//  183 
//  184 /**************************************************************************************************
//  185  * @fn      HalLcdInit
//  186  *
//  187  * @brief   Initilize LCD Service
//  188  *
//  189  * @param   init - pointer to void that contains the initialized value
//  190  *
//  191  * @return  None
//  192  **************************************************************************************************/

        RSEG BANKED_CODE:CODE:NOROOT(0)
//  193 void HalLcdInit(void)
HalLcdInit:
        CFI Block cfiBlock0 Using cfiCommon0
        CFI Function HalLcdInit
        CODE
//  194 {
        ; Saved register size: 0
        ; Auto size: 0
//  195 #if (HAL_LCD == TRUE)
//  196   HalLcd_HW_Init();
//  197 #endif
//  198 }
        LJMP    ?BRET
        CFI EndBlock cfiBlock0
//  199 
//  200 /**************************************************************************************************
//  201  * @fn      HalLcdWriteValue
//  202  *
//  203  * @brief   Write a value to the LCD
//  204  *
//  205  * @param   value  - value that will be displayed
//  206  *          radix  - 8, 10, 16
//  207  *          option - display options
//  208  *
//  209  * @return  None
//  210  **************************************************************************************************/

        RSEG BANKED_CODE:CODE:NOROOT(0)
//  211 void HalLcdWriteValue ( uint32 value, const uint8 radix, uint8 option)
HalLcdWriteValue:
        CFI Block cfiBlock1 Using cfiCommon0
        CFI Function HalLcdWriteValue
        CODE
//  212 {
        ; Saved register size: 0
        ; Auto size: 0
//  213 #if (HAL_LCD == TRUE)
//  214   uint8 buf[LCD_MAX_BUF];
//  215 
//  216   _ltoa( value, &buf[0], radix );
//  217   HalLcdWriteString( (char*)buf, option );
//  218 #endif
//  219 }
        LJMP    ?BRET
        CFI EndBlock cfiBlock1
//  220 
//  221 /**************************************************************************************************
//  222  * @fn      HalLcdWriteScreen
//  223  *
//  224  * @brief   Write a value to the LCD
//  225  *
//  226  * @param   line1  - string that will be displayed on line 1
//  227  *          line2  - string that will be displayed on line 2
//  228  *
//  229  * @return  None
//  230  **************************************************************************************************/

        RSEG BANKED_CODE:CODE:NOROOT(0)
//  231 void HalLcdWriteScreen( char *line1, char *line2 )
HalLcdWriteScreen:
        CFI Block cfiBlock2 Using cfiCommon0
        CFI Function HalLcdWriteScreen
        CODE
//  232 {
        ; Saved register size: 0
        ; Auto size: 0
//  233 #if (HAL_LCD == TRUE)
//  234   HalLcdWriteString( line1, 1 );
//  235   HalLcdWriteString( line2, 2 );
//  236 #endif
//  237 }
        LJMP    ?BRET
        CFI EndBlock cfiBlock2
//  238 
//  239 /**************************************************************************************************
//  240  * @fn      HalLcdWriteStringValue
//  241  *
//  242  * @brief   Write a string followed by a value to the LCD
//  243  *
//  244  * @param   title  - Title that will be displayed before the value
//  245  *          value  - value
//  246  *          format - redix
//  247  *          line   - line number
//  248  *
//  249  * @return  None
//  250  **************************************************************************************************/

        RSEG BANKED_CODE:CODE:NOROOT(0)
//  251 void HalLcdWriteStringValue( char *title, uint16 value, uint8 format, uint8 line )
HalLcdWriteStringValue:
        CFI Block cfiBlock3 Using cfiCommon0
        CFI Function HalLcdWriteStringValue
        CODE
//  252 {
        ; Saved register size: 0
        ; Auto size: 0
//  253 #if (HAL_LCD == TRUE)
//  254   uint8 tmpLen;
//  255   uint8 buf[LCD_MAX_BUF];
//  256   uint32 err;
//  257 
//  258   tmpLen = (uint8)osal_strlen( (char*)title );
//  259   osal_memcpy( buf, title, tmpLen );
//  260   //buf[tmpLen] = ' ';
//  261   err = (uint32)(value);
//  262   _ltoa( err, &buf[tmpLen], format );
//  263   HalLcdWriteString( (char*)buf, line );		
//  264 #endif
//  265 }
        LJMP    ?BRET
        CFI EndBlock cfiBlock3
//  266 
//  267 /**************************************************************************************************
//  268  * @fn      HalLcdWriteStringValue
//  269  *
//  270  * @brief   Write a string followed by a value to the LCD
//  271  *
//  272  * @param   title   - Title that will be displayed before the value
//  273  *          value1  - value #1
//  274  *          format1 - redix of value #1
//  275  *          value2  - value #2
//  276  *          format2 - redix of value #2
//  277  *          line    - line number
//  278  *
//  279  * @return  None
//  280  **************************************************************************************************/

        RSEG BANKED_CODE:CODE:NOROOT(0)
//  281 void HalLcdWriteStringValueValue( char *title, uint16 value1, uint8 format1,
HalLcdWriteStringValueValue:
        CFI Block cfiBlock4 Using cfiCommon0
        CFI Function HalLcdWriteStringValueValue
        CODE
//  282                                   uint16 value2, uint8 format2, uint8 line )
//  283 {
        ; Saved register size: 0
        ; Auto size: 0
//  284 
//  285 #if (HAL_LCD == TRUE)
//  286 
//  287   uint8 tmpLen;
//  288   uint8 buf[LCD_MAX_BUF];
//  289   uint32 err;
//  290 
//  291   tmpLen = (uint8)osal_strlen( (char*)title );
//  292   if ( tmpLen )
//  293   {
//  294     osal_memcpy( buf, title, tmpLen );
//  295     //buf[tmpLen++] = ' ';
//  296   }
//  297 
//  298   err = (uint32)(value1);
//  299   _ltoa( err, &buf[tmpLen], format1 );
//  300   tmpLen = (uint8)osal_strlen( (char*)buf );
//  301 
//  302   buf[tmpLen++] = ',';
//  303   buf[tmpLen++] = ' ';
//  304   err = (uint32)(value2);
//  305   _ltoa( err, &buf[tmpLen], format2 );
//  306 
//  307   HalLcdWriteString( (char *)buf, line );		
//  308 
//  309 #endif
//  310 }
        LJMP    ?BRET
        CFI EndBlock cfiBlock4

        RSEG XDATA_ID:CODE:NOROOT(0)
`?<Initializer for F16x16>`:
        DATA8
        DB 16
        DB 33
        DB 134
        DB 112
        DB 0
        DB 126
        DB 74
        DB 74
        DB 74
        DB 74
        DB 74
        DB 126
        DB 0
        DB 0
        DB 0
        DB 0
        DB 2
        DB 254
        DB 1
        DB 64
        DB 127
        DB 65
        DB 65
        DB 127
        DB 65
        DB 65
        DB 127
        DB 65
        DB 65
        DB 127
        DB 64
        DB 0
        DB 0
        DB 0
        DB 252
        DB 4
        DB 36
        DB 36
        DB 252
        DB 165
        DB 166
        DB 164
        DB 252
        DB 36
        DB 36
        DB 36
        DB 4
        DB 0
        DB 128
        DB 96
        DB 31
        DB 128
        DB 128
        DB 66
        DB 70
        DB 42
        DB 18
        DB 18
        DB 42
        DB 38
        DB 66
        DB 192
        DB 64
        DB 0
        DB 0
        DB 0
        DB 0
        DB 0
        DB 0
        DB 0
        DB 0
        DB 0
        DB 0
        DB 0
        DB 0
        DB 0
        DB 0
        DB 0
        DB 0
        DB 0
        DB 0
        DB 0
        DB 54
        DB 54
        DB 0
        DB 0
        DB 0
        DB 0
        DB 0
        DB 0
        DB 0
        DB 0
        DB 0
        DB 0
        DB 0
        DB 0
        DB 16
        DB 96
        DB 2
        DB 204
        DB 0
        DB 0
        DB 62
        DB 42
        DB 170
        DB 42
        DB 170
        DB 42
        DB 62
        DB 0
        DB 0
        DB 0
        DB 8
        DB 8
        DB 254
        DB 1
        DB 64
        DB 66
        DB 76
        DB 64
        DB 127
        DB 64
        DB 127
        DB 72
        DB 68
        DB 66
        DB 64
        DB 0

        RSEG BANK_RELAYS:CODE:REORDER:NOROOT(0)
??HalLcdInit?relay:
        LCALL   ?BDISPATCH
        DATA
        DC24    HalLcdInit

        RSEG BANK_RELAYS:CODE:REORDER:NOROOT(0)
??HalLcdWriteValue?relay:
        LCALL   ?BDISPATCH
        DATA
        DC24    HalLcdWriteValue

        RSEG BANK_RELAYS:CODE:REORDER:NOROOT(0)
??HalLcdWriteScreen?relay:
        LCALL   ?BDISPATCH
        DATA
        DC24    HalLcdWriteScreen

        RSEG BANK_RELAYS:CODE:REORDER:NOROOT(0)
??HalLcdWriteStringValue?relay:
        LCALL   ?BDISPATCH
        DATA
        DC24    HalLcdWriteStringValue

        RSEG BANK_RELAYS:CODE:REORDER:NOROOT(0)
??HalLcdWriteStringValueValue?relay:
        LCALL   ?BDISPATCH
        DATA
        DC24    HalLcdWriteStringValueValue

        END
//  311 
//  312 #if (HAL_LCD == TRUE)
//  313 void DelayMS(unsigned int msec)
//  314 { 
//  315     unsigned int i,j;
//  316     
//  317     for (i=0; i<msec; i++)
//  318         for (j=0; j<530; j++);
//  319 }
//  320 
//  321 /*********************LCD 延时1ms************************************/
//  322 void LCD_DLY_ms(unsigned int ms)
//  323 {                         
//  324     unsigned int a;
//  325     while(ms)
//  326     {
//  327         a=1800;
//  328         while(a--);
//  329         ms--;
//  330     }
//  331     return;
//  332 }
//  333 
//  334 /*********************LCD写数据************************************/ 
//  335 void LCD_WrDat(unsigned char dat)     
//  336 {
//  337     unsigned char i=8, temp=0;
//  338     LCD_DC=1;  
//  339     for(i=0;i<8;i++) //发送一个八位数据 
//  340     {
//  341         LCD_SCL=0;  
//  342         
//  343         temp = dat&0x80;
//  344         if (temp == 0)
//  345         {
//  346             LCD_SDA = 0;
//  347         }
//  348         else
//  349         {
//  350             LCD_SDA = 1;
//  351         }
//  352         LCD_SCL=1;             
//  353         dat<<=1;    
//  354     }
//  355 }
//  356 
//  357 /*********************LCD写命令************************************/                                        
//  358 void LCD_WrCmd(unsigned char cmd)
//  359 {
//  360     unsigned char i=8, temp=0;
//  361     LCD_DC=0;
//  362     for(i=0;i<8;i++) //发送一个八位数据 
//  363     { 
//  364         LCD_SCL=0; 
//  365        
//  366         temp = cmd&0x80;
//  367         if (temp == 0)
//  368         {
//  369             LCD_SDA = 0;
//  370         }
//  371         else
//  372         {
//  373             LCD_SDA = 1;
//  374         }
//  375         LCD_SCL=1;
//  376         cmd<<=1;;        
//  377     }     
//  378 }
//  379 
//  380 /*********************LCD 设置坐标************************************/
//  381 void LCD_Set_Pos(unsigned char x, unsigned char y) 
//  382 { 
//  383     LCD_WrCmd(0xb0+y);
//  384     LCD_WrCmd(((x&0xf0)>>4)|0x10);
//  385     LCD_WrCmd((x&0x0f)|0x01); 
//  386 } 
//  387 
//  388 /*********************LCD全屏************************************/
//  389 void LCD_Fill(unsigned char bmp_dat) 
//  390 {
//  391     unsigned char y,x;
//  392     for(y=0;y<8;y++)
//  393     {
//  394         LCD_WrCmd(0xb0+y);
//  395         LCD_WrCmd(0x01);
//  396         LCD_WrCmd(0x10);
//  397         for(x=0;x<X_WIDTH;x++)
//  398             LCD_WrDat(bmp_dat);
//  399     }
//  400 }
//  401 
//  402 /*********************LCD复位************************************/
//  403 void LCD_CLS(void)
//  404 {
//  405     unsigned char y,x;    
//  406     for(y=0;y<8;y++)
//  407     {
//  408         LCD_WrCmd(0xb0+y);
//  409         LCD_WrCmd(0x01);
//  410         LCD_WrCmd(0x10); 
//  411         for(x=0;x<X_WIDTH;x++)
//  412             LCD_WrDat(0);
//  413     }
//  414 }
//  415 
//  416 void LcdClearLine(unsigned char y, unsigned char count)
//  417 {
//  418     unsigned char x,j;	
//  419     
//  420     for(j=y; j<(y+count); j++)
//  421     {
//  422         LCD_WrCmd(0xb0+j);
//  423         LCD_WrCmd(0x01);
//  424         LCD_WrCmd(0x10); 
//  425         for(x=0;x<X_WIDTH;x++)
//  426            LCD_WrDat(0);
//  427     }
//  428 }
//  429 
//  430 void HalLcdWriteString (char *str, uint8 option)
//  431 {
//  432   uint8 x=0,y=0,strLen;
//  433   uint8 lcdBuf[HAL_LCD_MAX_CHARS+1];
//  434     
//  435   x=0;
//  436   y = (option-1)*2;
//  437   strLen = (uint8)osal_strlen( (char*)str );
//  438 
//  439   /* Check boundries */
//  440   if ( strLen > HAL_LCD_MAX_CHARS )
//  441     strLen = HAL_LCD_MAX_CHARS;
//  442 
//  443   osal_memset(lcdBuf, 0, HAL_LCD_MAX_CHARS+1);
//  444   osal_memcpy( lcdBuf, str, strLen );
//  445   
//  446   LcdClearLine(y, 2);
//  447   LCD_P8x16Str(x, y, lcdBuf);
//  448 }
//  449 
//  450 /***能描述：显示8*16一组标准ASCII字符串     显示的坐标（x,y），y为页范围0～7***/
//  451 void LCD_P8x16Str(unsigned char x, unsigned char y,unsigned char ch[])
//  452 {
//  453     unsigned char c=0,i=0,j=0;
//  454     
//  455     while (ch[j]!='\0')
//  456     {    
//  457         c =ch[j]-32;
//  458         if(x>120){
//  459           x=0;
//  460           y++;
//  461         }
//  462         LCD_Set_Pos(x,y);    
//  463         for(i=0;i<8;i++)     
//  464             LCD_WrDat(F8X16[c*16+i]);
//  465         LCD_Set_Pos(x,y+1);    
//  466         for(i=0;i<8;i++)     
//  467             LCD_WrDat(F8X16[c*16+i+8]);  
//  468         x+=8;
//  469         j++;
//  470     }
//  471 }
//  472 
//  473 /*****************功能描述：显示16*16点阵  显示的坐标（x,y），y为页范围0～7****************************/
//  474 void LCD_P16x16Ch(unsigned char x, unsigned char y, unsigned char N)
//  475 {
//  476     unsigned char wm=0;
//  477     unsigned int adder=2*N;//32*N;        
//  478     LCD_Set_Pos(x , y);
//  479     for(wm = 0;wm < 16;wm++)               
//  480     {
//  481         LCD_WrDat(F16x16[adder]);    
//  482         adder += 1;
//  483     }      
//  484     LCD_Set_Pos(x,y + 1); 
//  485     for(wm = 0;wm < 16;wm++)          
//  486     {
//  487         LCD_WrDat(F16x16[adder]);
//  488         adder += 1;
//  489     }           
//  490 }
//  491 
//  492 void HalLcd_HW_WaitUs(uint16 microSecs)
//  493 {
//  494   while(microSecs--)
//  495   {
//  496     /* 32 NOPs == 1 usecs */
//  497     asm("nop"); asm("nop"); asm("nop"); asm("nop");
//  498     asm("nop"); asm("nop"); asm("nop"); asm("nop");
//  499   }
//  500 }
//  501 
//  502 void HalLcd_HW_Init(void)
//  503 {
//  504     P0SEL &= 0xFE; //让P0.0为普通IO口，
//  505     P0DIR |= 0x01; //让P0.0为为输出
//  506 
//  507     P1SEL &= 0x73; //让 P1.2 P1.3 P1.7为普通IO口
//  508     P1DIR |= 0x8C; //把 P1.2 P1.3 1.7设置为输出
//  509     
//  510     LCD_SCL=1;
//  511     LCD_RST=0;
//  512     LCD_DLY_ms(50);
//  513     LCD_RST=1;      //从上电到下面开始初始化要有足够的时间，即等待RC复位完毕   
//  514     LCD_WrCmd(0xae);//--turn off oled panel
//  515     LCD_WrCmd(0x00);//---set low column address
//  516     LCD_WrCmd(0x10);//---set high column address
//  517     LCD_WrCmd(0x40);//--set start line address  Set Mapping RAM Display Start Line (0x00~0x3F)
//  518     LCD_WrCmd(0x81);//--set contrast control register
//  519     LCD_WrCmd(0xcf); // Set SEG Output Current Brightness
//  520     LCD_WrCmd(0xa1);//--Set SEG/Column Mapping     0xa0左右反置 0xa1正常
//  521     LCD_WrCmd(0xc8);//Set COM/Row Scan Direction   0xc0上下反置 0xc8正常
//  522     LCD_WrCmd(0xa6);//--set normal display
//  523     LCD_WrCmd(0xa8);//--set multiplex ratio(1 to 64)
//  524     LCD_WrCmd(0x3f);//--1/64 duty
//  525     LCD_WrCmd(0xd3);//-set display offset    Shift Mapping RAM Counter (0x00~0x3F)
//  526     LCD_WrCmd(0x00);//-not offset
//  527     LCD_WrCmd(0xd5);//--set display clock divide ratio/oscillator frequency
//  528     LCD_WrCmd(0x80);//--set divide ratio, Set Clock as 100 Frames/Sec
//  529     LCD_WrCmd(0xd9);//--set pre-charge period
//  530     LCD_WrCmd(0xf1);//Set Pre-Charge as 15 Clocks & Discharge as 1 Clock
//  531     LCD_WrCmd(0xda);//--set com pins hardware configuration
//  532     LCD_WrCmd(0x12);
//  533     LCD_WrCmd(0xdb);//--set vcomh
//  534     LCD_WrCmd(0x40);//Set VCOM Deselect Level
//  535     LCD_WrCmd(0x20);//-Set Page Addressing Mode (0x00/0x01/0x02)
//  536     LCD_WrCmd(0x02);//
//  537     LCD_WrCmd(0x8d);//--set Charge Pump enable/disable
//  538     LCD_WrCmd(0x14);//--set(0x10) disable
//  539     LCD_WrCmd(0xa4);// Disable Entire Display On (0xa4/0xa5)
//  540     LCD_WrCmd(0xa6);// Disable Inverse Display On (0xa6/a7) 
//  541     LCD_WrCmd(0xaf);//--turn on oled panel
//  542     LCD_Fill(0x00);  //初始清屏 
//  543     LCD_Set_Pos(0,0); 
//  544 }
//  545 
//  546 
//  547 #endif
// 
//    15 bytes in segment BANKED_CODE
//    30 bytes in segment BANK_RELAYS
//   128 bytes in segment XDATA_I
//   128 bytes in segment XDATA_ID
// 1 520 bytes in segment XDATA_ROM_C
// 
//   173 bytes of CODE  memory
// 1 520 bytes of CONST memory
//   128 bytes of XDATA memory
//
//Errors: none
//Warnings: none
